target datalayout = "e-m:e-p270:32:32-p271:32:32-p272:64:64-i64:64-i128:128-f80:128-n8:16:32:64-S128"
target triple = "x86_64-pc-linux-gnu"

%struct.pdf_struct = type { ptr, i32, i32, i32, i32, i32, ptr, i64, ptr, i64, i64, i64, ptr, ptr, i32, i32, ptr, i32, ptr, i32, %struct.pdf_stats, ptr, i32, i32 }
%struct.pdf_stats = type { i32, i32, i32, i32, i32, i32, i32, i32, i32, i32, i32, i32, i32, i32, i32, i32, i32, i32, i32, i32, i32, i32, i32, i32, i32, ptr, ptr, ptr, ptr, ptr, ptr, ptr, ptr }
%struct.pdf_obj = type { i32, i64, i32, i32, i32, i32, [64 x i32], ptr, i64, ptr, ptr, i8 }

; Function Attrs: nounwind uwtable
define i32 @get_enc_method(ptr noundef %0, ptr noundef %1) #0 {
  %3 = alloca i32, align 4
  %4 = alloca ptr, align 8
  %5 = alloca ptr, align 8
  store ptr %0, ptr %4, align 8
  store ptr %1, ptr %5, align 8
  %6 = load ptr, ptr %5, align 8
  %7 = getelementptr inbounds %struct.pdf_obj, ptr %6, i32 0, i32 3
  %8 = load i32, ptr %7, align 4
  %9 = and i32 %8, 4
  %10 = icmp ne i32 %9, 0
  br i1 %10, label %11, label %15

11:                                               ; preds = %2
  %12 = load ptr, ptr %4, align 8
  %13 = getelementptr inbounds %struct.pdf_struct, ptr %12, i32 0, i32 5
  %14 = load i32, ptr %13, align 8
  store i32 %14, ptr %3, align 4
  br label %29

15:                                               ; preds = %2
  %16 = load ptr, ptr %5, align 8
  %17 = getelementptr inbounds %struct.pdf_obj, ptr %16, i32 0, i32 3
  %18 = load i32, ptr %17, align 4
  %19 = and i32 %18, 1
  %20 = icmp ne i32 %19, 0
  br i1 %20, label %21, label %25

21:                                               ; preds = %15
  %22 = load ptr, ptr %4, align 8
  %23 = getelementptr inbounds %struct.pdf_struct, ptr %22, i32 0, i32 3
  %24 = load i32, ptr %23, align 8
  store i32 %24, ptr %3, align 4
  br label %29

25:                                               ; preds = %15
  %26 = load ptr, ptr %4, align 8
  %27 = getelementptr inbounds %struct.pdf_struct, ptr %26, i32 0, i32 4
  %28 = load i32, ptr %27, align 4
  store i32 %28, ptr %3, align 4
  br label %29

29:                                               ; preds = %25, %21, %11
  %30 = load i32, ptr %3, align 4
  ret i32 %30
}