; Function Attrs: mustprogress nofree norecurse nosync nounwind willreturn memory(argmem: read) uwtable
define i32 @get_enc_method(ptr nocapture noundef readonly %0, ptr nocapture noundef readonly %1) local_unnamed_addr #10 {
  %3 = getelementptr inbounds i8, ptr %1, i64 20
  %4 = load i32, ptr %3, align 4
  %5 = and i32 %4, 4
  %.not = icmp eq i32 %5, 0
  %6 = and i32 %4, 1
  %.not5 = icmp eq i32 %6, 0
  %. = select i1 %.not5, i64 20, i64 16
  %.sink = select i1 %.not, i64 %., i64 24
  %7 = getelementptr inbounds i8, ptr %0, i64 %.sink
  %.0 = load i32, ptr %7, align 4
  ret i32 %.0
}